target datalayout = "e-m:e-p270:32:32-p271:32:32-p272:64:64-i64:64-i128:128-f80:128-n8:16:32:64-S128"
target triple = "x86_64-pc-linux-gnu"

%struct.darktable_t = type { %struct.dt_codepath_t, i32, i32, ptr, ptr, ptr, ptr, ptr, ptr, ptr, ptr, ptr, ptr, ptr, ptr, ptr, ptr, ptr, ptr, ptr, ptr, ptr, ptr, ptr, ptr, ptr, ptr, ptr, ptr, ptr, [64 x %struct.dt_pthread_mutex_t], %struct.dt_pthread_mutex_t, %struct.dt_pthread_mutex_t, %struct.dt_pthread_mutex_t, %struct.dt_pthread_mutex_t, %struct.dt_pthread_mutex_t, ptr, ptr, ptr, ptr, ptr, ptr, ptr, ptr, ptr, ptr, ptr, ptr, ptr, %struct.dt_lua_state_t, ptr, double, ptr, i32, [47 x i32], i32, i32, ptr, ptr, %struct.dt_sys_resources_t, %struct.dt_backthumb_t, %struct.dt_gimp_t }
%struct.dt_codepath_t = type { i8, [3 x i8] }
%struct.dt_pthread_mutex_t = type { %union.pthread_mutex_t }
%union.pthread_mutex_t = type { %struct.__pthread_mutex_s }
%struct.__pthread_mutex_s = type { i32, i32, i32, i32, i32, i16, i16, %struct.__pthread_internal_list }
%struct.__pthread_internal_list = type { ptr, ptr }
%struct.dt_lua_state_t = type { i32 }
%struct.dt_sys_resources_t = type { i64, i64, ptr, ptr, i32 }
%struct.dt_backthumb_t = type { double, double, i32, i32, i32, i32 }
%struct.dt_gimp_t = type { i32, ptr, ptr, i32, i32 }
%struct.dt_iop_roi_t = type { i32, i32, i32, i32, float }
%struct.dt_iop_buffer_dsc_t = type { i32, i32, i32, [6 x [6 x i8]], %struct.anon.3, [12 x i8], %struct.anon.4, [4 x float], i32, [12 x i8] }
%struct.anon.3 = type { i16, i16 }
%struct.anon.4 = type { i32, [12 x i8], [4 x float] }
%struct.dt_dev_pixelpipe_t = type { %struct.dt_dev_pixelpipe_cache_t, i32, i64, ptr, i32, i32, float, i32, i32, [12 x i8], %struct.dt_iop_buffer_dsc_t, ptr, ptr, ptr, ptr, i32, i32, i32, i32, ptr, i64, i32, i32, float, float, float, i64, %struct.dt_pthread_mutex_t, %struct.dt_pthread_mutex_t, %struct.dt_pthread_mutex_t, i32, i32, i32, %struct.dt_dev_detail_mask_t, i32, i32, i32, i32, i32, i32, i32, i32, i32, i32, i32, i32, i32, i32, [8 x i8], %struct.dt_image_t, i32, ptr, i32, ptr, ptr, ptr, i32, ptr, i64, [8 x i8] }
%struct.dt_dev_pixelpipe_cache_t = type { i32, i64, i64, ptr, ptr, ptr, ptr, ptr, ptr, i64, i32, i64, i64, i32, i32, i32 }
%struct.dt_dev_detail_mask_t = type { %struct.dt_iop_roi_t, i64, ptr }
%struct.dt_image_t = type { i32, i32, float, float, float, float, float, float, float, [64 x i8], [64 x i8], [128 x i8], [64 x i8], [64 x i8], [64 x i8], [64 x i8], i64, i32, %union.dt_image_correction_data_t, [64 x i8], [64 x i8], [64 x i8], [128 x i8], i32, [256 x i8], i32, i32, i32, i32, i32, i32, i32, i32, i32, i32, float, i32, i32, i32, i32, i32, i32, i64, i64, i64, i64, i32, [12 x i8], %struct.dt_iop_buffer_dsc_t, [9 x float], ptr, i32, i32, %struct.dt_image_raw_parameters_t, %struct.dt_image_geoloc_t, %struct._color_harmony_t, i16, [4 x i16], i32, i32, float, float, [4 x float], [4 x [3 x float]], [4 x float], ptr, ptr, i32, i32, [8 x i8] }
%union.dt_image_correction_data_t = type { %struct.anon.0 }
%struct.anon.0 = type { i32, float, [11 x float], [11 x float], [11 x float], [11 x float], [11 x float] }
%struct.dt_image_raw_parameters_t = type { i32 }
%struct.dt_image_geoloc_t = type { double, double, double }
%struct._color_harmony_t = type { i32, i32, i32 }
%struct.dt_develop_t = type { i32, i32, i32, ptr, double, double, i32, i32, i32, i32, i32, double, i32, i32, i32, ptr, ptr, [8 x i8], %struct.dt_image_t, i32, i32, %struct.dt_pthread_mutex_t, i32, ptr, i32, ptr, i32, ptr, ptr, i32, ptr, ptr, ptr, ptr, i32, i32, ptr, ptr, ptr, ptr, i32, i32, i32, float, float, ptr, i32, %struct.anon.5, %struct.dt_dev_chroma_t, %struct.anon.8, %struct.anon.9, %struct.anon.10, %struct.anon.11, %struct.anon.12, %struct.anon.13, ptr, ptr, %struct.dt_dev_viewport_t, %struct.dt_dev_viewport_t, i32, i32, i32, ptr, [8 x i8] }
%struct.anon.5 = type { %struct.dt_dev_proxy_exposure_t, ptr, %struct.anon.6, %struct.anon.7 }
%struct.dt_dev_proxy_exposure_t = type { ptr, ptr, ptr, ptr }
%struct.anon.6 = type { ptr, ptr, ptr, ptr, ptr, ptr, ptr, ptr, ptr }
%struct.anon.7 = type { ptr, ptr, ptr, ptr, ptr }
%struct.dt_dev_chroma_t = type { ptr, ptr, [4 x double], [4 x double], [4 x double], i32 }
%struct.anon.8 = type { ptr, ptr, ptr }
%struct.anon.9 = type { ptr, ptr, i32, i32, float, float, i32 }
%struct.anon.10 = type { ptr, ptr, i32, i32, i32, float }
%struct.anon.11 = type { ptr }
%struct.anon.12 = type { ptr, i32 }
%struct.anon.13 = type { ptr, ptr, ptr }
%struct.dt_dev_viewport_t = type { ptr, i32, i32, i32, i32, i32, double, double, double, i32, i32, i32, float, float, float, ptr }

@darktable = external global %struct.darktable_t, align 8

; Function Attrs: inlinehint nounwind uwtable
define internal i32 @_gradient_is_canonical(float noundef %0, float noundef %1, float noundef %2, float noundef %3) #7 {
  %5 = alloca float, align 4
  %6 = alloca float, align 4
  %7 = alloca float, align 4
  %8 = alloca float, align 4
  store float %0, ptr %5, align 4, !tbaa !29
  store float %1, ptr %6, align 4, !tbaa !29
  store float %2, ptr %7, align 4, !tbaa !29
  store float %3, ptr %8, align 4, !tbaa !29
  %9 = load float, ptr %5, align 4, !tbaa !29
  %10 = call i32 @dt_isnormal(float noundef %9)
  %11 = icmp ne i32 %10, 0
  br i1 %11, label %12, label %36

12:                                               ; preds = %4
  %13 = load float, ptr %6, align 4, !tbaa !29
  %14 = call i32 @dt_isnormal(float noundef %13)
  %15 = icmp ne i32 %14, 0
  br i1 %15, label %16, label %36

16:                                               ; preds = %12
  %17 = load float, ptr %5, align 4, !tbaa !29
  %18 = load float, ptr %7, align 4, !tbaa !29
  %19 = fneg reassoc nsz arcp contract afn float %18
  %20 = fcmp reassoc nsz arcp contract afn oge float %17, %19
  br i1 %20, label %21, label %36

21:                                               ; preds = %16
  %22 = load float, ptr %5, align 4, !tbaa !29
  %23 = load float, ptr %7, align 4, !tbaa !29
  %24 = fmul reassoc nsz arcp contract afn float 2.000000e+00, %23
  %25 = fcmp reassoc nsz arcp contract afn ole float %22, %24
  br i1 %25, label %26, label %36

26:                                               ; preds = %21
  %27 = load float, ptr %6, align 4, !tbaa !29
  %28 = load float, ptr %8, align 4, !tbaa !29
  %29 = fneg reassoc nsz arcp contract afn float %28
  %30 = fcmp reassoc nsz arcp contract afn oge float %27, %29
  br i1 %30, label %31, label %36

31:                                               ; preds = %26
  %32 = load float, ptr %6, align 4, !tbaa !29
  %33 = load float, ptr %8, align 4, !tbaa !29
  %34 = fmul reassoc nsz arcp contract afn float 2.000000e+00, %33
  %35 = fcmp reassoc nsz arcp contract afn ole float %32, %34
  br label %36

36:                                               ; preds = %31, %26, %21, %16, %12, %4
  %37 = phi i1 [ false, %26 ], [ false, %21 ], [ false, %16 ], [ false, %12 ], [ false, %4 ], [ %35, %31 ]
  %38 = zext i1 %37 to i32
  ret i32 %38
}

; Function Attrs: inlinehint nounwind uwtable
define internal i32 @dt_isnormal(float noundef %0) #7 {
  %2 = alloca float, align 4
  store float %0, ptr %2, align 4, !tbaa !29
  %3 = load float, ptr %2, align 4, !tbaa !29
  %4 = call i1 @llvm.is.fpclass.f32(float %3, i32 264)
  %5 = zext i1 %4 to i32
  ret i32 %5
}

; Function Attrs: inlinehint nounwind uwtable
define internal void @dt_masks_get_image_size(ptr noundef %0, ptr noundef %1, ptr noundef %2, ptr noundef %3) #7 {
  %5 = alloca ptr, align 8
  %6 = alloca ptr, align 8
  %7 = alloca ptr, align 8
  %8 = alloca ptr, align 8
  %9 = alloca ptr, align 8
  store ptr %0, ptr %5, align 8, !tbaa !30
  store ptr %1, ptr %6, align 8, !tbaa !30
  store ptr %2, ptr %7, align 8, !tbaa !30
  store ptr %3, ptr %8, align 8, !tbaa !30
  call void @llvm.lifetime.start.p0(i64 8, ptr %9) #11
  %10 = load ptr, ptr getelementptr inbounds nuw (%struct.darktable_t, ptr @darktable, i32 0, i32 9), align 8, !tbaa !143
  %11 = getelementptr inbounds nuw %struct.dt_develop_t, ptr %10, i32 0, i32 16
  %12 = load ptr, ptr %11, align 16, !tbaa !192
  store ptr %12, ptr %9, align 8, !tbaa !193
  %13 = load ptr, ptr %5, align 8, !tbaa !30
  %14 = icmp ne ptr %13, null
  br i1 %14, label %15, label %21

15:                                               ; preds = %4
  %16 = load ptr, ptr %9, align 8, !tbaa !193
  %17 = getelementptr inbounds nuw %struct.dt_dev_pixelpipe_t, ptr %16, i32 0, i32 21
  %18 = load i32, ptr %17, align 16, !tbaa !194
  %19 = sitofp i32 %18 to float
  %20 = load ptr, ptr %5, align 8, !tbaa !30
  store float %19, ptr %20, align 4, !tbaa !29
  br label %21

21:                                               ; preds = %15, %4
  %22 = load ptr, ptr %6, align 8, !tbaa !30
  %23 = icmp ne ptr %22, null
  br i1 %23, label %24, label %30

24:                                               ; preds = %21
  %25 = load ptr, ptr %9, align 8, !tbaa !193
  %26 = getelementptr inbounds nuw %struct.dt_dev_pixelpipe_t, ptr %25, i32 0, i32 22
  %27 = load i32, ptr %26, align 4, !tbaa !195
  %28 = sitofp i32 %27 to float
  %29 = load ptr, ptr %6, align 8, !tbaa !30
  store float %28, ptr %29, align 4, !tbaa !29
  br label %30

30:                                               ; preds = %24, %21
  %31 = load ptr, ptr %7, align 8, !tbaa !30
  %32 = icmp ne ptr %31, null
  br i1 %32, label %33, label %39

33:                                               ; preds = %30
  %34 = load ptr, ptr %9, align 8, !tbaa !193
  %35 = getelementptr inbounds nuw %struct.dt_dev_pixelpipe_t, ptr %34, i32 0, i32 4
  %36 = load i32, ptr %35, align 16, !tbaa !119
  %37 = sitofp i32 %36 to float
  %38 = load ptr, ptr %7, align 8, !tbaa !30
  store float %37, ptr %38, align 4, !tbaa !29
  br label %39

39:                                               ; preds = %33, %30
  %40 = load ptr, ptr %8, align 8, !tbaa !30
  %41 = icmp ne ptr %40, null
  br i1 %41, label %42, label %48

42:                                               ; preds = %39
  %43 = load ptr, ptr %9, align 8, !tbaa !193
  %44 = getelementptr inbounds nuw %struct.dt_dev_pixelpipe_t, ptr %43, i32 0, i32 5
  %45 = load i32, ptr %44, align 4, !tbaa !131
  %46 = sitofp i32 %45 to float
  %47 = load ptr, ptr %8, align 8, !tbaa !30
  store float %46, ptr %47, align 4, !tbaa !29
  br label %48

48:                                               ; preds = %42, %39
  call void @llvm.lifetime.end.p0(i64 8, ptr %9) #11
  ret void
}

; Function Attrs: nounwind uwtable
define internal void @_gradient_draw_lines(i32 noundef %0, ptr noundef %1, i32 noundef %2, float noundef %3, ptr noundef %4, i32 noundef %5, float noundef %6, float noundef %7) #0 {
  %9 = alloca i32, align 4
  %10 = alloca ptr, align 8
  %11 = alloca i32, align 4
  %12 = alloca float, align 4
  %13 = alloca ptr, align 8
  %14 = alloca i32, align 4
  %15 = alloca float, align 4
  %16 = alloca float, align 4
  %17 = alloca float, align 4
  %18 = alloca float, align 4
  %19 = alloca float, align 4
  %20 = alloca float, align 4
  %21 = alloca ptr, align 8
  %22 = alloca i32, align 4
  %23 = alloca i32, align 4
  %24 = alloca float, align 4
  %25 = alloca float, align 4
  store i32 %0, ptr %9, align 4, !tbaa !6
  store ptr %1, ptr %10, align 8, !tbaa !188
  store i32 %2, ptr %11, align 4, !tbaa !6
  store float %3, ptr %12, align 4, !tbaa !29
  store ptr %4, ptr %13, align 8, !tbaa !30
  store i32 %5, ptr %14, align 4, !tbaa !6
  store float %6, ptr %15, align 4, !tbaa !29
  store float %7, ptr %16, align 4, !tbaa !29
  %26 = load i32, ptr %9, align 4, !tbaa !6
  %27 = icmp ne i32 %26, 0
  br i1 %27, label %28, label %32

28:                                               ; preds = %8
  %29 = load i32, ptr %14, align 4, !tbaa !6
  %30 = icmp sle i32 %29, 3
  br i1 %30, label %31, label %32

31:                                               ; preds = %28
  br label %165

32:                                               ; preds = %28, %8
  %33 = load i32, ptr %9, align 4, !tbaa !6
  %34 = icmp ne i32 %33, 0
  br i1 %34, label %39, label %35

35:                                               ; preds = %32
  %36 = load i32, ptr %14, align 4, !tbaa !6
  %37 = icmp sle i32 %36, 4
  br i1 %37, label %38, label %39

38:                                               ; preds = %35
  br label %165

39:                                               ; preds = %35, %32
  call void @llvm.lifetime.start.p0(i64 4, ptr %17) #11
  call void @llvm.lifetime.start.p0(i64 4, ptr %18) #11
  call void @llvm.lifetime.start.p0(i64 4, ptr %19) #11
  call void @llvm.lifetime.start.p0(i64 4, ptr %20) #11
  call void @dt_masks_get_image_size(ptr noundef %17, ptr noundef %18, ptr noundef %19, ptr noundef %20)
  call void @llvm.lifetime.start.p0(i64 8, ptr %21) #11
  %40 = load i32, ptr %9, align 4, !tbaa !6
  %41 = icmp ne i32 %40, 0
  br i1 %41, label %42, label %44

42:                                               ; preds = %39
  %43 = load ptr, ptr %13, align 8, !tbaa !30
  br label %47

44:                                               ; preds = %39
  %45 = load ptr, ptr %13, align 8, !tbaa !30
  %46 = getelementptr inbounds float, ptr %45, i64 6
  br label %47

47:                                               ; preds = %44, %42
  %48 = phi ptr [ %43, %42 ], [ %46, %44 ]
  store ptr %48, ptr %21, align 8, !tbaa !30
  call void @llvm.lifetime.start.p0(i64 4, ptr %22) #11
  %49 = load i32, ptr %9, align 4, !tbaa !6
  %50 = icmp ne i32 %49, 0
  br i1 %50, label %51, label %53

51:                                               ; preds = %47
  %52 = load i32, ptr %14, align 4, !tbaa !6
  br label %56

53:                                               ; preds = %47
  %54 = load i32, ptr %14, align 4, !tbaa !6
  %55 = sub nsw i32 %54, 3
  br label %56

56:                                               ; preds = %53, %51
  %57 = phi i32 [ %52, %51 ], [ %55, %53 ]
  store i32 %57, ptr %22, align 4, !tbaa !6
  call void @llvm.lifetime.start.p0(i64 4, ptr %23) #11
  store i32 0, ptr %23, align 4, !tbaa !6
  call void @llvm.lifetime.start.p0(i64 4, ptr %24) #11
  store float 0.000000e+00, ptr %24, align 4, !tbaa !29
  call void @llvm.lifetime.start.p0(i64 4, ptr %25) #11
  store float 0.000000e+00, ptr %25, align 4, !tbaa !29
  br label %58

58:                                               ; preds = %159, %94, %71, %56
  %59 = load i32, ptr %23, align 4, !tbaa !6
  %60 = load i32, ptr %22, align 4, !tbaa !6
  %61 = icmp slt i32 %59, %60
  br i1 %61, label %62, label %164

62:                                               ; preds = %58
  %63 = load ptr, ptr %21, align 8, !tbaa !30
  %64 = load i32, ptr %23, align 4, !tbaa !6
  %65 = mul nsw i32 %64, 2
  %66 = sext i32 %65 to i64
  %67 = getelementptr inbounds float, ptr %63, i64 %66
  %68 = load float, ptr %67, align 4, !tbaa !29
  %69 = call i32 @dt_isnormal(float noundef %68)
  %70 = icmp ne i32 %69, 0
  br i1 %70, label %74, label %71

71:                                               ; preds = %62
  %72 = load i32, ptr %23, align 4, !tbaa !6
  %73 = add nsw i32 %72, 1
  store i32 %73, ptr %23, align 4, !tbaa !6
  br label %58

74:                                               ; preds = %62
  %75 = load ptr, ptr %21, align 8, !tbaa !30
  %76 = load i32, ptr %23, align 4, !tbaa !6
  %77 = mul nsw i32 %76, 2
  %78 = sext i32 %77 to i64
  %79 = getelementptr inbounds float, ptr %75, i64 %78
  %80 = load float, ptr %79, align 4, !tbaa !29
  store float %80, ptr %24, align 4, !tbaa !29
  %81 = load ptr, ptr %21, align 8, !tbaa !30
  %82 = load i32, ptr %23, align 4, !tbaa !6
  %83 = mul nsw i32 %82, 2
  %84 = add nsw i32 %83, 1
  %85 = sext i32 %84 to i64
  %86 = getelementptr inbounds float, ptr %81, i64 %85
  %87 = load float, ptr %86, align 4, !tbaa !29
  store float %87, ptr %25, align 4, !tbaa !29
  %88 = load float, ptr %24, align 4, !tbaa !29
  %89 = load float, ptr %25, align 4, !tbaa !29
  %90 = load float, ptr %19, align 4, !tbaa !29
  %91 = load float, ptr %19, align 4, !tbaa !29
  %92 = call i32 @_gradient_is_canonical(float noundef %88, float noundef %89, float noundef %90, float noundef %91)
  %93 = icmp ne i32 %92, 0
  br i1 %93, label %97, label %94

94:                                               ; preds = %74
  %95 = load i32, ptr %23, align 4, !tbaa !6
  %96 = add nsw i32 %95, 1
  store i32 %96, ptr %23, align 4, !tbaa !6
  br label %58

97:                                               ; preds = %74
  %98 = load ptr, ptr %10, align 8, !tbaa !188
  %99 = load float, ptr %24, align 4, !tbaa !29
  %100 = fpext reassoc nsz arcp contract afn float %99 to double
  %101 = load float, ptr %25, align 4, !tbaa !29
  %102 = fpext reassoc nsz arcp contract afn float %101 to double
  call void @cairo_move_to(ptr noundef %98, double noundef %100, double noundef %102)
  %103 = load i32, ptr %23, align 4, !tbaa !6
  %104 = add nsw i32 %103, 1
  store i32 %104, ptr %23, align 4, !tbaa !6
  br label %105

105:                                              ; preds = %156, %97
  %106 = load i32, ptr %23, align 4, !tbaa !6
  %107 = load i32, ptr %22, align 4, !tbaa !6
  %108 = icmp slt i32 %106, %107
  br i1 %108, label %109, label %118

109:                                              ; preds = %105
  %110 = load ptr, ptr %21, align 8, !tbaa !30
  %111 = load i32, ptr %23, align 4, !tbaa !6
  %112 = mul nsw i32 %111, 2
  %113 = sext i32 %112 to i64
  %114 = getelementptr inbounds float, ptr %110, i64 %113
  %115 = load float, ptr %114, align 4, !tbaa !29
  %116 = call i32 @dt_isnormal(float noundef %115)
  %117 = icmp ne i32 %116, 0
  br label %118

118:                                              ; preds = %109, %105
  %119 = phi i1 [ false, %105 ], [ %117, %109 ]
  br i1 %119, label %120, label %159

120:                                              ; preds = %118
  %121 = load ptr, ptr %21, align 8, !tbaa !30
  %122 = load i32, ptr %23, align 4, !tbaa !6
  %123 = mul nsw i32 %122, 2
  %124 = sext i32 %123 to i64
  %125 = getelementptr inbounds float, ptr %121, i64 %124
  %126 = load float, ptr %125, align 4, !tbaa !29
  %127 = load ptr, ptr %21, align 8, !tbaa !30
  %128 = load i32, ptr %23, align 4, !tbaa !6
  %129 = mul nsw i32 %128, 2
  %130 = add nsw i32 %129, 1
  %131 = sext i32 %130 to i64
  %132 = getelementptr inbounds float, ptr %127, i64 %131
  %133 = load float, ptr %132, align 4, !tbaa !29
  %134 = load float, ptr %19, align 4, !tbaa !29
  %135 = load float, ptr %19, align 4, !tbaa !29
  %136 = call i32 @_gradient_is_canonical(float noundef %126, float noundef %133, float noundef %134, float noundef %135)
  %137 = icmp ne i32 %136, 0
  br i1 %137, label %139, label %138

138:                                              ; preds = %120
  br label %159

139:                                              ; preds = %120
  %140 = load ptr, ptr %10, align 8, !tbaa !188
  %141 = load ptr, ptr %21, align 8, !tbaa !30
  %142 = load i32, ptr %23, align 4, !tbaa !6
  %143 = mul nsw i32 %142, 2
  %144 = sext i32 %143 to i64
  %145 = getelementptr inbounds float, ptr %141, i64 %144
  %146 = load float, ptr %145, align 4, !tbaa !29
  %147 = fpext reassoc nsz arcp contract afn float %146 to double
  %148 = load ptr, ptr %21, align 8, !tbaa !30
  %149 = load i32, ptr %23, align 4, !tbaa !6
  %150 = mul nsw i32 %149, 2
  %151 = add nsw i32 %150, 1
  %152 = sext i32 %151 to i64
  %153 = getelementptr inbounds float, ptr %148, i64 %152
  %154 = load float, ptr %153, align 4, !tbaa !29
  %155 = fpext reassoc nsz arcp contract afn float %154 to double
  call void @cairo_line_to(ptr noundef %140, double noundef %147, double noundef %155)
  br label %156

156:                                              ; preds = %139
  %157 = load i32, ptr %23, align 4, !tbaa !6
  %158 = add nsw i32 %157, 1
  store i32 %158, ptr %23, align 4, !tbaa !6
  br label %105

159:                                              ; preds = %138, %118
  %160 = load ptr, ptr %10, align 8, !tbaa !188
  %161 = load i32, ptr %9, align 4, !tbaa !6
  %162 = load i32, ptr %11, align 4, !tbaa !6
  %163 = load float, ptr %12, align 4, !tbaa !29
  call void @dt_masks_line_stroke(ptr noundef %160, i32 noundef %161, i32 noundef 0, i32 noundef %162, float noundef %163)
  br label %58

164:                                              ; preds = %58
  call void @llvm.lifetime.end.p0(i64 4, ptr %25) #11
  call void @llvm.lifetime.end.p0(i64 4, ptr %24) #11
  call void @llvm.lifetime.end.p0(i64 4, ptr %23) #11
  call void @llvm.lifetime.end.p0(i64 4, ptr %22) #11
  call void @llvm.lifetime.end.p0(i64 8, ptr %21) #11
  call void @llvm.lifetime.end.p0(i64 4, ptr %20) #11
  call void @llvm.lifetime.end.p0(i64 4, ptr %19) #11
  call void @llvm.lifetime.end.p0(i64 4, ptr %18) #11
  call void @llvm.lifetime.end.p0(i64 4, ptr %17) #11
  br label %165

165:                                              ; preds = %164, %38, %31
  ret void
}