; Function Attrs: nounwind uwtable
define internal fastcc void @_gradient_draw_lines(i32 noundef range(i32 0, 2) %0, ptr noundef %1, i32 noundef %2, float noundef %3, ptr noundef readonly captures(none) %4, i32 noundef %5) unnamed_addr #0 {
  %7 = icmp ne i32 %0, 0
  %8 = icmp slt i32 %5, 4
  %or.cond = and i1 %7, %8
  br i1 %or.cond, label %.loopexit, label %9

9:                                                ; preds = %6
  %10 = icmp eq i32 %0, 0
  %11 = icmp slt i32 %5, 5
  %or.cond3 = and i1 %10, %11
  br i1 %or.cond3, label %.loopexit, label %12

12:                                               ; preds = %9
  %.idx = select i1 %7, i64 0, i64 24
  %13 = getelementptr inbounds nuw i8, ptr %4, i64 %.idx
  %14 = add nsw i32 %5, -3
  %15 = select i1 %7, i32 %5, i32 %14
  %16 = icmp sgt i32 %15, 0
  br i1 %16, label %.lr.ph66, label %.loopexit

.lr.ph66:                                         ; preds = %12
  %17 = load ptr, ptr getelementptr inbounds nuw (i8, ptr @darktable, i64 64), align 8, !tbaa !122
  %18 = getelementptr inbounds nuw i8, ptr %17, i64 96
  %19 = load ptr, ptr %18, align 16, !tbaa !123
  %20 = getelementptr inbounds nuw i8, ptr %19, i64 144
  %21 = load i32, ptr %20, align 16, !tbaa !90
  %22 = sitofp i32 %21 to float
  %23 = fneg reassoc nsz arcp contract afn float %22
  %24 = fmul reassoc nsz arcp contract afn float %22, 2.000000e+00
  %25 = zext nneg i32 %15 to i64
  br label %26

26:                                               ; preds = %.lr.ph66, %.backedge
  %.065 = phi i32 [ 0, %.lr.ph66 ], [ %.0.be, %.backedge ]
  %27 = shl nsw i32 %.065, 1
  %28 = sext i32 %27 to i64
  %29 = getelementptr inbounds float, ptr %13, i64 %28
  %30 = load float, ptr %29, align 4, !tbaa !27
  %31 = tail call i1 @llvm.is.fpclass.f32(float %30, i32 759)
  br i1 %31, label %32, label %35

32:                                               ; preds = %26
  %33 = add nsw i32 %.065, 1
  br label %.backedge

.backedge:                                        ; preds = %32, %_gradient_is_canonical.exit.thread, %.critedge
  %.0.be = phi i32 [ %.1.lcssa, %.critedge ], [ %45, %_gradient_is_canonical.exit.thread ], [ %33, %32 ]
  %34 = icmp slt i32 %.0.be, %15
  br i1 %34, label %26, label %.loopexit

35:                                               ; preds = %26
  %36 = or disjoint i32 %27, 1
  %37 = sext i32 %36 to i64
  %38 = getelementptr inbounds float, ptr %13, i64 %37
  %39 = load float, ptr %38, align 4, !tbaa !27
  %40 = tail call i1 @llvm.is.fpclass.f32(float %39, i32 759)
  %41 = fcmp reassoc nsz arcp contract afn ult float %30, %23
  %or.cond.i = or i1 %41, %40
  %42 = fcmp reassoc nsz arcp contract afn ugt float %30, %24
  %or.cond14.i = or i1 %42, %or.cond.i
  %43 = fcmp reassoc nsz arcp contract afn ult float %39, %23
  %or.cond16.i = or i1 %43, %or.cond14.i
  %44 = fcmp reassoc nsz arcp contract afn ugt float %39, %24
  %or.cond57 = or i1 %44, %or.cond16.i
  br i1 %or.cond57, label %_gradient_is_canonical.exit.thread, label %46

_gradient_is_canonical.exit.thread:               ; preds = %35
  %45 = add nsw i32 %.065, 1
  br label %.backedge

46:                                               ; preds = %35
  %47 = fpext reassoc nsz arcp contract afn float %30 to double
  %48 = fpext reassoc nsz arcp contract afn float %39 to double
  tail call void @cairo_move_to(ptr noundef %1, double noundef %47, double noundef %48) #13
  %.159 = add nsw i32 %.065, 1
  %49 = icmp slt i32 %.159, %15
  br i1 %49, label %.lr.ph.preheader, label %.critedge

.lr.ph.preheader:                                 ; preds = %46
  %50 = sext i32 %.159 to i64
  br label %.lr.ph

.lr.ph:                                           ; preds = %.lr.ph.preheader, %64
  %indvars.iv = phi i64 [ %50, %.lr.ph.preheader ], [ %indvars.iv.next, %64 ]
  %51 = shl nsw i64 %indvars.iv, 1
  %52 = getelementptr inbounds float, ptr %13, i64 %51
  %53 = load float, ptr %52, align 4, !tbaa !27
  %54 = tail call i1 @llvm.is.fpclass.f32(float %53, i32 759)
  br i1 %54, label %.critedge.loopexit.split.loop.exit70, label %55

55:                                               ; preds = %.lr.ph
  %56 = or disjoint i64 %51, 1
  %57 = getelementptr inbounds float, ptr %13, i64 %56
  %58 = load float, ptr %57, align 4, !tbaa !27
  %59 = tail call i1 @llvm.is.fpclass.f32(float %58, i32 759)
  %60 = fcmp reassoc nsz arcp contract afn ult float %53, %23
  %or.cond.i50 = or i1 %60, %59
  %61 = fcmp reassoc nsz arcp contract afn ugt float %53, %24
  %or.cond14.i51 = or i1 %61, %or.cond.i50
  %62 = fcmp reassoc nsz arcp contract afn ult float %58, %23
  %or.cond16.i52 = or i1 %62, %or.cond14.i51
  %63 = fcmp reassoc nsz arcp contract afn ugt float %58, %24
  %or.cond58 = or i1 %63, %or.cond16.i52
  br i1 %or.cond58, label %.critedge.loopexit.split.loop.exit, label %64

64:                                               ; preds = %55
  %65 = fpext reassoc nsz arcp contract afn float %53 to double
  %66 = fpext reassoc nsz arcp contract afn float %58 to double
  tail call void @cairo_line_to(ptr noundef %1, double noundef %65, double noundef %66) #13
  %indvars.iv.next = add nsw i64 %indvars.iv, 1
  %exitcond.not = icmp eq i64 %indvars.iv.next, %25
  br i1 %exitcond.not, label %.critedge, label %.lr.ph

.critedge.loopexit.split.loop.exit:               ; preds = %55
  %67 = trunc nsw i64 %indvars.iv to i32
  br label %.critedge

.critedge.loopexit.split.loop.exit70:             ; preds = %.lr.ph
  %68 = trunc nsw i64 %indvars.iv to i32
  br label %.critedge

.critedge:                                        ; preds = %64, %.critedge.loopexit.split.loop.exit, %.critedge.loopexit.split.loop.exit70, %46
  %.1.lcssa = phi i32 [ %.159, %46 ], [ %67, %.critedge.loopexit.split.loop.exit ], [ %68, %.critedge.loopexit.split.loop.exit70 ], [ %15, %64 ]
  tail call void @dt_masks_line_stroke(ptr noundef %1, i32 noundef %0, i32 noundef 0, i32 noundef %2, float noundef %3) #13
  br label %.backedge

.loopexit:                                        ; preds = %.backedge, %12, %9, %6
  ret void
}